target datalayout = "e-m:e-p270:32:32-p271:32:32-p272:64:64-i64:64-i128:128-f80:128-n8:16:32:64-S128"
target triple = "x86_64-pc-linux-gnu"

; Function Attrs: nounwind uwtable
define zeroext i16 @pmix12_v1_to_v2_datatype(i32 noundef %0) #0 {
  %2 = alloca i32, align 4
  %3 = alloca i16, align 2
  store i32 %0, ptr %2, align 4, !tbaa !20
  call void @llvm.lifetime.start.p0(i64 2, ptr %3) #13
  %4 = load i32, ptr %2, align 4, !tbaa !20
  switch i32 %4, label %11 [
    i32 20, label %5
    i32 22, label %6
    i32 23, label %7
    i32 24, label %7
    i32 25, label %7
    i32 26, label %7
    i32 27, label %7
    i32 28, label %7
    i32 29, label %7
    i32 30, label %7
    i32 31, label %7
  ]

5:                                                ; preds = %1
  store i16 0, ptr %3, align 2, !tbaa !33
  br label %14

6:                                                ; preds = %1
  store i16 44, ptr %3, align 2, !tbaa !33
  br label %14

7:                                                ; preds = %1, %1, %1, %1, %1, %1, %1, %1, %1
  %8 = load i32, ptr %2, align 4, !tbaa !20
  %9 = sub nsw i32 %8, 1
  %10 = trunc i32 %9 to i16
  store i16 %10, ptr %3, align 2, !tbaa !33
  br label %14

11:                                               ; preds = %1
  %12 = load i32, ptr %2, align 4, !tbaa !20
  %13 = trunc i32 %12 to i16
  store i16 %13, ptr %3, align 2, !tbaa !33
  br label %14

14:                                               ; preds = %11, %7, %6, %5
  %15 = load i16, ptr %3, align 2, !tbaa !33
  call void @llvm.lifetime.end.p0(i64 2, ptr %3) #13
  ret i16 %15
}

; Function Attrs: nounwind uwtable
define i32 @pmix12_bfrop_get_data_type(ptr noundef %0, ptr noundef %1, ptr noundef %2) #0 {
  %4 = alloca i32, align 4
  %5 = alloca ptr, align 8
  %6 = alloca ptr, align 8
  %7 = alloca ptr, align 8
  %8 = alloca i32, align 4
  %9 = alloca i32, align 4
  %10 = alloca i32, align 4
  %11 = alloca i32, align 4
  store ptr %0, ptr %5, align 8, !tbaa !44
  store ptr %1, ptr %6, align 8, !tbaa !3
  store ptr %2, ptr %7, align 8, !tbaa !46
  call void @llvm.lifetime.start.p0(i64 4, ptr %8) #13
  store i32 1, ptr %8, align 4, !tbaa !20
  call void @llvm.lifetime.start.p0(i64 4, ptr %9) #13
  call void @llvm.lifetime.start.p0(i64 4, ptr %10) #13
  %12 = load ptr, ptr %5, align 8, !tbaa !44
  %13 = load ptr, ptr %6, align 8, !tbaa !3
  %14 = call i32 @pmix12_bfrop_unpack_datatype(ptr noundef %12, ptr noundef %13, ptr noundef %9, ptr noundef %8, i16 noundef zeroext 6)
  store i32 %14, ptr %10, align 4, !tbaa !20
  %15 = load i32, ptr %9, align 4, !tbaa !20
  %16 = icmp slt i32 65535, %15
  br i1 %16, label %17, label %19

17:                                               ; preds = %3
  %18 = load ptr, ptr %7, align 8, !tbaa !46
  store i16 0, ptr %18, align 2, !tbaa !33
  store i32 -16, ptr %4, align 4
  store i32 1, ptr %11, align 4
  br label %28

19:                                               ; preds = %3
  %20 = load i32, ptr %10, align 4, !tbaa !20
  %21 = icmp eq i32 0, %20
  br i1 %21, label %22, label %26

22:                                               ; preds = %19
  %23 = load i32, ptr %9, align 4, !tbaa !20
  %24 = call zeroext i16 @pmix12_v1_to_v2_datatype(i32 noundef %23)
  %25 = load ptr, ptr %7, align 8, !tbaa !46
  store i16 %24, ptr %25, align 2, !tbaa !33
  br label %26

26:                                               ; preds = %22, %19
  %27 = load i32, ptr %10, align 4, !tbaa !20
  store i32 %27, ptr %4, align 4
  store i32 1, ptr %11, align 4
  br label %28

28:                                               ; preds = %26, %17
  call void @llvm.lifetime.end.p0(i64 4, ptr %10) #13
  call void @llvm.lifetime.end.p0(i64 4, ptr %9) #13
  call void @llvm.lifetime.end.p0(i64 4, ptr %8) #13
  %29 = load i32, ptr %4, align 4
  ret i32 %29
}