; Function Attrs: nounwind uwtable
define i32 @pmix12_bfrop_get_data_type(ptr noundef %0, ptr noundef %1, ptr noundef writeonly captures(none) %2) local_unnamed_addr #0 {
  %4 = alloca i32, align 4
  %5 = alloca i32, align 4
  call void @llvm.lifetime.start.p0(i64 4, ptr nonnull %4) #18
  store i32 1, ptr %4, align 4, !tbaa !12
  call void @llvm.lifetime.start.p0(i64 4, ptr nonnull %5) #18
  %6 = call i32 @pmix12_bfrop_unpack_datatype(ptr noundef %0, ptr noundef %1, ptr noundef nonnull %5, ptr noundef nonnull %4, i16 noundef zeroext 6) #18
  %7 = load i32, ptr %5, align 4, !tbaa !12
  %8 = icmp sgt i32 %7, 65535
  br i1 %8, label %.sink.split, label %9

9:                                                ; preds = %3
  %10 = icmp eq i32 %6, 0
  br i1 %10, label %11, label %16

11:                                               ; preds = %9
  %switch.tableidx = add i32 %7, -20
  %12 = icmp ult i32 %switch.tableidx, 12
  br i1 %12, label %switch.hole_check, label %13

13:                                               ; preds = %switch.hole_check, %11
  %14 = trunc i32 %7 to i16
  br label %.sink.split

switch.hole_check:                                ; preds = %11
  %switch.maskindex = trunc nuw i32 %switch.tableidx to i16
  %switch.shifted = lshr i16 4093, %switch.maskindex
  %switch.lobit = trunc i16 %switch.shifted to i1
  br i1 %switch.lobit, label %switch.lookup, label %13

switch.lookup:                                    ; preds = %switch.hole_check
  %15 = zext nneg i32 %switch.tableidx to i64
  %switch.gep = getelementptr inbounds nuw [12 x i16], ptr @switch.table.pmix12_bfrop_get_data_type, i64 0, i64 %15
  %switch.load = load i16, ptr %switch.gep, align 2
  br label %.sink.split

.sink.split:                                      ; preds = %switch.lookup, %13, %3
  %.0.i.sink = phi i16 [ 0, %3 ], [ %14, %13 ], [ %switch.load, %switch.lookup ]
  %.0.ph = phi i32 [ -16, %3 ], [ 0, %13 ], [ 0, %switch.lookup ]
  store i16 %.0.i.sink, ptr %2, align 2, !tbaa !47
  br label %16

16:                                               ; preds = %.sink.split, %9
  %.0 = phi i32 [ %6, %9 ], [ %.0.ph, %.sink.split ]
  call void @llvm.lifetime.end.p0(i64 4, ptr nonnull %5) #18
  call void @llvm.lifetime.end.p0(i64 4, ptr nonnull %4) #18
  ret i32 %.0
}